; Function Attrs: nounwind uwtable
define internal noundef i32 @dispatch_error(ptr noundef %0, i32 noundef returned %1, ptr noundef %2) #0 {
  %.not = icmp eq ptr %0, null
  br i1 %.not, label %7, label %4

4:                                                ; preds = %3
  %5 = getelementptr inbounds nuw i8, ptr %0, i64 80
  %6 = load ptr, ptr %5, align 8, !tbaa !54
  tail call void %6(ptr noundef nonnull %0, i32 noundef %1, ptr noundef %2) #12
  br label %8

7:                                                ; preds = %3
  tail call void @default_error_handler(ptr noundef null, i32 noundef %1, ptr noundef %2)
  br label %8

8:                                                ; preds = %7, %4
  ret i32 %1
}